; Function Attrs: nounwind uwtable
define dso_local range(i32 -1, 1) i32 @clusteracct_storage_p_node_update(ptr noundef %0, ptr noundef readonly captures(none) %1, i64 noundef %2) local_unnamed_addr #0 {
  %4 = alloca %struct.persist_msg_t, align 8
  %5 = alloca %struct.dbd_node_state_msg, align 8
  call void @llvm.lifetime.start.p0(i64 24, ptr nonnull %4) #11
  %6 = getelementptr inbounds nuw i8, ptr %4, i64 16
  store i64 0, ptr %6, align 8
  call void @llvm.lifetime.start.p0(i64 72, ptr nonnull %5) #11
  %7 = getelementptr inbounds nuw i8, ptr %1, i64 320
  %8 = load i32, ptr %7, align 8
  %9 = and i32 %8, 15
  %10 = icmp ne i32 %9, 6
  %11 = and i32 %8, 4096
  %.not = icmp eq i32 %11, 0
  %or.cond = and i1 %10, %.not
  br i1 %or.cond, label %12, label %32

12:                                               ; preds = %3
  call void @llvm.memset.p0.i64(ptr noundef nonnull align 8 dereferenceable(72) %5, i8 0, i64 64, i1 false)
  %13 = getelementptr inbounds nuw i8, ptr %1, i64 272
  %14 = load ptr, ptr %13, align 8
  %15 = getelementptr inbounds nuw i8, ptr %5, i64 16
  store ptr %14, ptr %15, align 8
  %16 = getelementptr inbounds nuw i8, ptr %1, i64 128
  %17 = load ptr, ptr %16, align 8
  %18 = getelementptr inbounds nuw i8, ptr %5, i64 8
  store ptr %17, ptr %18, align 8
  %19 = getelementptr inbounds nuw i8, ptr %1, i64 216
  %20 = load ptr, ptr %19, align 8
  %21 = getelementptr inbounds nuw i8, ptr %5, i64 24
  store ptr %20, ptr %21, align 8
  %22 = getelementptr inbounds nuw i8, ptr %1, i64 224
  %23 = load ptr, ptr %22, align 8
  %24 = getelementptr inbounds nuw i8, ptr %5, i64 32
  store ptr %23, ptr %24, align 8
  %25 = getelementptr inbounds nuw i8, ptr %5, i64 40
  store i16 3, ptr %25, align 8
  %26 = getelementptr inbounds nuw i8, ptr %1, i64 496
  %27 = load ptr, ptr %26, align 8
  %28 = getelementptr inbounds nuw i8, ptr %5, i64 64
  store ptr %27, ptr %28, align 8
  %29 = getelementptr inbounds nuw i8, ptr %4, i64 16
  store i16 1432, ptr %29, align 8
  store ptr %0, ptr %4, align 8
  %30 = getelementptr inbounds nuw i8, ptr %4, i64 8
  store ptr %5, ptr %30, align 8
  %31 = call i32 @slurmdbd_agent_send(i16 noundef zeroext 11008, ptr noundef nonnull %4) #11
  %.lobit = ashr i32 %31, 31
  br label %32

32:                                               ; preds = %12, %3
  %.0 = phi i32 [ 0, %3 ], [ %.lobit, %12 ]
  call void @llvm.lifetime.end.p0(i64 72, ptr nonnull %5) #11
  call void @llvm.lifetime.end.p0(i64 24, ptr nonnull %4) #11
  ret i32 %.0
}